target datalayout = "e-m:e-p270:32:32-p271:32:32-p272:64:64-i64:64-i128:128-f80:128-n8:16:32:64-S128"
target triple = "x86_64-pc-linux-gnu"

; Function Attrs: inlinehint mustprogress nounwind uwtable
define linkonce_odr noundef ptr @_ZN6icu_7724CollationElementIterator22fromUCollationElementsEP18UCollationElements(ptr noundef %0) #4 comdat align 2 {
  %2 = alloca ptr, align 8
  store ptr %0, ptr %2, align 8, !tbaa !39
  %3 = load ptr, ptr %2, align 8, !tbaa !39
  ret ptr %3
}

; Function Attrs: mustprogress uwtable
define void @ucol_closeElements_77(ptr noundef %0) #3 {
  %2 = alloca ptr, align 8
  store ptr %0, ptr %2, align 8, !tbaa !39
  %3 = load ptr, ptr %2, align 8, !tbaa !39
  %4 = call noundef ptr @_ZN6icu_7724CollationElementIterator22fromUCollationElementsEP18UCollationElements(ptr noundef %3)
  %5 = icmp eq ptr %4, null
  br i1 %5, label %7, label %6

6:                                                ; preds = %1
  call void @_ZN6icu_7724CollationElementIteratorD1Ev(ptr noundef nonnull align 8 dereferenceable(104) %4) #11
  call void @_ZN6icu_777UMemorydlEPv(ptr noundef %4) #11
  br label %7

7:                                                ; preds = %6, %1
  ret void
}