; Function Attrs: mustprogress nounwind uwtable
define void @ucol_closeElements_77(ptr noundef %0) local_unnamed_addr #1 {
  %2 = icmp eq ptr %0, null
  br i1 %2, label %4, label %3

3:                                                ; preds = %1
  tail call void @_ZN6icu_7724CollationElementIteratorD1Ev(ptr noundef nonnull align 8 dereferenceable(104) %0) #14
  tail call void @_ZN6icu_777UMemorydlEPv(ptr noundef nonnull %0) #14
  br label %4

4:                                                ; preds = %3, %1
  ret void
}